target datalayout = "e-m:e-p270:32:32-p271:32:32-p272:64:64-i64:64-i128:128-f80:128-n8:16:32:64-S128"
target triple = "x86_64-pc-linux-gnu"

@.str.11 = private unnamed_addr constant [2 x i8] c"\0A\00", align 1
@.str.12 = private unnamed_addr constant [27 x i8] c"    opt_share [selection]\0A\00", align 1
@.str.13 = private unnamed_addr constant [70 x i8] c"This pass identifies mutually exclusive cells of the same type that:\0A\00", align 1
@.str.14 = private unnamed_addr constant [32 x i8] c"    (a) share an input signal,\0A\00", align 1
@.str.15 = private unnamed_addr constant [66 x i8] c"    (b) drive the same $mux, $_MUX_, or $pmux multiplexing cell,\0A\00", align 1
@.str.16 = private unnamed_addr constant [69 x i8] c"allowing the cell to be merged and the multiplexer to be moved from\0A\00", align 1
@.str.17 = private unnamed_addr constant [71 x i8] c"multiplexing its output to multiplexing the non-shared input signals.\0A\00", align 1

; Function Attrs: mustprogress uwtable
define internal void @_ZN12_GLOBAL__N_112OptSharePass4helpEv(ptr noundef nonnull align 8 dereferenceable(104) %0) unnamed_addr #5 align 2 {
  %2 = alloca ptr, align 8
  store ptr %0, ptr %2, align 8
  call void (ptr, ...) @_ZN5Yosys3logEPKcz(ptr noundef @.str.11)
  call void (ptr, ...) @_ZN5Yosys3logEPKcz(ptr noundef @.str.12)
  call void (ptr, ...) @_ZN5Yosys3logEPKcz(ptr noundef @.str.11)
  call void (ptr, ...) @_ZN5Yosys3logEPKcz(ptr noundef @.str.13)
  call void (ptr, ...) @_ZN5Yosys3logEPKcz(ptr noundef @.str.14)
  call void (ptr, ...) @_ZN5Yosys3logEPKcz(ptr noundef @.str.15)
  call void (ptr, ...) @_ZN5Yosys3logEPKcz(ptr noundef @.str.11)
  call void (ptr, ...) @_ZN5Yosys3logEPKcz(ptr noundef @.str.16)
  call void (ptr, ...) @_ZN5Yosys3logEPKcz(ptr noundef @.str.17)
  call void (ptr, ...) @_ZN5Yosys3logEPKcz(ptr noundef @.str.11)
  ret void
}